target datalayout = "e-m:e-p270:32:32-p271:32:32-p272:64:64-i64:64-i128:128-f80:128-n8:16:32:64-S128"
target triple = "x86_64-pc-linux-gnu"

%struct.nstime_t = type { i64 }
%struct.decay_s = type { %struct.malloc_mutex_s, i8, %struct.atomic_zd_t, %struct.nstime_t, %struct.nstime_t, i64, %struct.nstime_t, i64, i64, [200 x i64], i64 }
%struct.malloc_mutex_s = type { %union.anon }
%union.anon = type { %struct.anon }
%struct.anon = type { %struct.mutex_prof_data_t, %union.pthread_mutex_t, %struct.atomic_b_t }
%struct.mutex_prof_data_t = type { %struct.nstime_t, %struct.nstime_t, i64, i64, i32, %struct.atomic_u32_t, i64, ptr, i64 }
%struct.atomic_u32_t = type { i32 }
%union.pthread_mutex_t = type { %struct.__pthread_mutex_s }
%struct.__pthread_mutex_s = type { i32, i32, i32, i32, i32, i16, i16, %struct.__pthread_internal_list }
%struct.__pthread_internal_list = type { ptr, ptr }
%struct.atomic_b_t = type { i8 }
%struct.atomic_zd_t = type { i64 }

; Function Attrs: alwaysinline nounwind uwtable
define internal i32 @atomic_enum_to_builtin(i32 noundef %0) #4 {
  %2 = alloca i32, align 4
  %3 = alloca i32, align 4
  store i32 %0, ptr %3, align 4, !tbaa !13
  %4 = load i32, ptr %3, align 4, !tbaa !13
  switch i32 %4, label %10 [
    i32 0, label %5
    i32 1, label %6
    i32 2, label %7
    i32 3, label %8
    i32 4, label %9
  ]

5:                                                ; preds = %1
  store i32 0, ptr %2, align 4
  br label %12

6:                                                ; preds = %1
  store i32 2, ptr %2, align 4
  br label %12

7:                                                ; preds = %1
  store i32 3, ptr %2, align 4
  br label %12

8:                                                ; preds = %1
  store i32 4, ptr %2, align 4
  br label %12

9:                                                ; preds = %1
  store i32 5, ptr %2, align 4
  br label %12

10:                                               ; preds = %1
  br label %11

11:                                               ; preds = %10
  unreachable

12:                                               ; preds = %5, %6, %7, %8, %9
  %13 = load i32, ptr %2, align 4
  ret i32 %13
}

; Function Attrs: alwaysinline nounwind uwtable
define internal i64 @atomic_load_zd(ptr noundef %0, i32 noundef %1) #4 {
  %3 = alloca ptr, align 8
  %4 = alloca i32, align 4
  %5 = alloca i64, align 8
  store ptr %0, ptr %3, align 8, !tbaa !17
  store i32 %1, ptr %4, align 4, !tbaa !13
  call void @llvm.lifetime.start.p0(i64 8, ptr %5) #9
  %6 = load ptr, ptr %3, align 8, !tbaa !17
  %7 = getelementptr inbounds nuw %struct.atomic_zd_t, ptr %6, i32 0, i32 0
  %8 = load i32, ptr %4, align 4, !tbaa !13
  %9 = call i32 @atomic_enum_to_builtin(i32 noundef %8)
  switch i32 %9, label %10 [
    i32 1, label %12
    i32 2, label %12
    i32 5, label %14
  ]

10:                                               ; preds = %2
  %11 = load atomic i64, ptr %7 monotonic, align 8
  store i64 %11, ptr %5, align 8
  br label %16

12:                                               ; preds = %2, %2
  %13 = load atomic i64, ptr %7 acquire, align 8
  store i64 %13, ptr %5, align 8
  br label %16

14:                                               ; preds = %2
  %15 = load atomic i64, ptr %7 seq_cst, align 8
  store i64 %15, ptr %5, align 8
  br label %16

16:                                               ; preds = %14, %12, %10
  %17 = load i64, ptr %5, align 8, !tbaa !11
  call void @llvm.lifetime.end.p0(i64 8, ptr %5) #9
  ret i64 %17
}

; Function Attrs: inlinehint nounwind uwtable
define internal i64 @decay_ms_read(ptr noundef %0) #2 {
  %2 = alloca ptr, align 8
  store ptr %0, ptr %2, align 8, !tbaa !4
  %3 = load ptr, ptr %2, align 8, !tbaa !4
  %4 = getelementptr inbounds nuw %struct.decay_s, ptr %3, i32 0, i32 2
  %5 = call i64 @atomic_load_zd(ptr noundef %4, i32 noundef 0)
  ret i64 %5
}

; Function Attrs: inlinehint nounwind uwtable
define internal i64 @decay_npurge_after_interval(ptr noundef %0, i64 noundef %1) #2 {
  %3 = alloca ptr, align 8
  %4 = alloca i64, align 8
  %5 = alloca i64, align 8
  %6 = alloca i64, align 8
  store ptr %0, ptr %3, align 8, !tbaa !4
  store i64 %1, ptr %4, align 8, !tbaa !11
  call void @llvm.lifetime.start.p0(i64 8, ptr %5) #9
  call void @llvm.lifetime.start.p0(i64 8, ptr %6) #9
  store i64 0, ptr %6, align 8, !tbaa !11
  store i64 0, ptr %5, align 8, !tbaa !11
  br label %7

7:                                                ; preds = %23, %2
  %8 = load i64, ptr %5, align 8, !tbaa !11
  %9 = load i64, ptr %4, align 8, !tbaa !11
  %10 = icmp ult i64 %8, %9
  br i1 %10, label %11, label %26

11:                                               ; preds = %7
  %12 = load ptr, ptr %3, align 8, !tbaa !4
  %13 = getelementptr inbounds nuw %struct.decay_s, ptr %12, i32 0, i32 9
  %14 = load i64, ptr %5, align 8, !tbaa !11
  %15 = getelementptr inbounds nuw [200 x i64], ptr %13, i64 0, i64 %14
  %16 = load i64, ptr %15, align 8, !tbaa !11
  %17 = load i64, ptr %5, align 8, !tbaa !11
  %18 = getelementptr inbounds nuw [200 x i64], ptr @h_steps, i64 0, i64 %17
  %19 = load i64, ptr %18, align 8, !tbaa !11
  %20 = mul i64 %16, %19
  %21 = load i64, ptr %6, align 8, !tbaa !11
  %22 = add i64 %21, %20
  store i64 %22, ptr %6, align 8, !tbaa !11
  br label %23

23:                                               ; preds = %11
  %24 = load i64, ptr %5, align 8, !tbaa !11
  %25 = add i64 %24, 1
  store i64 %25, ptr %5, align 8, !tbaa !11
  br label %7, !llvm.loop !29

26:                                               ; preds = %7
  br label %27

27:                                               ; preds = %48, %26
  %28 = load i64, ptr %5, align 8, !tbaa !11
  %29 = icmp ult i64 %28, 200
  br i1 %29, label %30, label %51

30:                                               ; preds = %27
  %31 = load ptr, ptr %3, align 8, !tbaa !4
  %32 = getelementptr inbounds nuw %struct.decay_s, ptr %31, i32 0, i32 9
  %33 = load i64, ptr %5, align 8, !tbaa !11
  %34 = getelementptr inbounds nuw [200 x i64], ptr %32, i64 0, i64 %33
  %35 = load i64, ptr %34, align 8, !tbaa !11
  %36 = load i64, ptr %5, align 8, !tbaa !11
  %37 = getelementptr inbounds nuw [200 x i64], ptr @h_steps, i64 0, i64 %36
  %38 = load i64, ptr %37, align 8, !tbaa !11
  %39 = load i64, ptr %5, align 8, !tbaa !11
  %40 = load i64, ptr %4, align 8, !tbaa !11
  %41 = sub i64 %39, %40
  %42 = getelementptr inbounds nuw [200 x i64], ptr @h_steps, i64 0, i64 %41
  %43 = load i64, ptr %42, align 8, !tbaa !11
  %44 = sub i64 %38, %43
  %45 = mul i64 %35, %44
  %46 = load i64, ptr %6, align 8, !tbaa !11
  %47 = add i64 %46, %45
  store i64 %47, ptr %6, align 8, !tbaa !11
  br label %48

48:                                               ; preds = %30
  %49 = load i64, ptr %5, align 8, !tbaa !11
  %50 = add i64 %49, 1
  store i64 %50, ptr %5, align 8, !tbaa !11
  br label %27, !llvm.loop !30

51:                                               ; preds = %27
  %52 = load i64, ptr %6, align 8, !tbaa !11
  %53 = lshr i64 %52, 24
  call void @llvm.lifetime.end.p0(i64 8, ptr %6) #9
  call void @llvm.lifetime.end.p0(i64 8, ptr %5) #9
  ret i64 %53
}

; Function Attrs: inlinehint nounwind uwtable
define internal i64 @decay_epoch_duration_ns(ptr noundef %0) #2 {
  %2 = alloca ptr, align 8
  store ptr %0, ptr %2, align 8, !tbaa !4
  %3 = load ptr, ptr %2, align 8, !tbaa !4
  %4 = getelementptr inbounds nuw %struct.decay_s, ptr %3, i32 0, i32 3
  %5 = call i64 @je_nstime_ns(ptr noundef %4)
  ret i64 %5
}

; Function Attrs: inlinehint nounwind uwtable
define internal zeroext i1 @decay_gradually(ptr noundef %0) #2 {
  %2 = alloca ptr, align 8
  %3 = alloca i64, align 8
  store ptr %0, ptr %2, align 8, !tbaa !4
  call void @llvm.lifetime.start.p0(i64 8, ptr %3) #9
  %4 = load ptr, ptr %2, align 8, !tbaa !4
  %5 = call i64 @decay_ms_read(ptr noundef %4)
  store i64 %5, ptr %3, align 8, !tbaa !11
  %6 = load i64, ptr %3, align 8, !tbaa !11
  %7 = icmp sgt i64 %6, 0
  call void @llvm.lifetime.end.p0(i64 8, ptr %3) #9
  ret i1 %7
}

; Function Attrs: nounwind uwtable
define hidden i64 @je_decay_ns_until_purge(ptr noundef %0, i64 noundef %1, i64 noundef %2) #0 {
  %4 = alloca i64, align 8
  %5 = alloca ptr, align 8
  %6 = alloca i64, align 8
  %7 = alloca i64, align 8
  %8 = alloca i64, align 8
  %9 = alloca i32, align 4
  %10 = alloca i32, align 4
  %11 = alloca i64, align 8
  %12 = alloca i64, align 8
  %13 = alloca i64, align 8
  %14 = alloca i64, align 8
  %15 = alloca i32, align 4
  %16 = alloca i64, align 8
  %17 = alloca i64, align 8
  store ptr %0, ptr %5, align 8, !tbaa !4
  store i64 %1, ptr %6, align 8, !tbaa !11
  store i64 %2, ptr %7, align 8, !tbaa !11
  %18 = load ptr, ptr %5, align 8, !tbaa !4
  %19 = call zeroext i1 @decay_gradually(ptr noundef %18)
  br i1 %19, label %21, label %20

20:                                               ; preds = %3
  store i64 -1, ptr %4, align 8
  br label %129

21:                                               ; preds = %3
  call void @llvm.lifetime.start.p0(i64 8, ptr %8) #9
  %22 = load ptr, ptr %5, align 8, !tbaa !4
  %23 = call i64 @decay_epoch_duration_ns(ptr noundef %22)
  store i64 %23, ptr %8, align 8, !tbaa !11
  br label %24

24:                                               ; preds = %21
  br label %25

25:                                               ; preds = %24
  br label %26

26:                                               ; preds = %25
  %27 = load i64, ptr %6, align 8, !tbaa !11
  %28 = icmp eq i64 %27, 0
  br i1 %28, label %29, label %54

29:                                               ; preds = %26
  call void @llvm.lifetime.start.p0(i64 4, ptr %9) #9
  store i32 0, ptr %9, align 4, !tbaa !13
  br label %30

30:                                               ; preds = %43, %29
  %31 = load i32, ptr %9, align 4, !tbaa !13
  %32 = icmp ult i32 %31, 200
  br i1 %32, label %33, label %46

33:                                               ; preds = %30
  %34 = load ptr, ptr %5, align 8, !tbaa !4
  %35 = getelementptr inbounds nuw %struct.decay_s, ptr %34, i32 0, i32 9
  %36 = load i32, ptr %9, align 4, !tbaa !13
  %37 = zext i32 %36 to i64
  %38 = getelementptr inbounds nuw [200 x i64], ptr %35, i64 0, i64 %37
  %39 = load i64, ptr %38, align 8, !tbaa !11
  %40 = icmp ugt i64 %39, 0
  br i1 %40, label %41, label %42

41:                                               ; preds = %33
  br label %46

42:                                               ; preds = %33
  br label %43

43:                                               ; preds = %42
  %44 = load i32, ptr %9, align 4, !tbaa !13
  %45 = add i32 %44, 1
  store i32 %45, ptr %9, align 4, !tbaa !13
  br label %30, !llvm.loop !27

46:                                               ; preds = %41, %30
  %47 = load i32, ptr %9, align 4, !tbaa !13
  %48 = icmp eq i32 %47, 200
  br i1 %48, label %49, label %50

49:                                               ; preds = %46
  store i64 -1, ptr %4, align 8
  store i32 1, ptr %10, align 4
  br label %51

50:                                               ; preds = %46
  store i32 0, ptr %10, align 4
  br label %51

51:                                               ; preds = %50, %49
  call void @llvm.lifetime.end.p0(i64 4, ptr %9) #9
  %52 = load i32, ptr %10, align 4
  switch i32 %52, label %128 [
    i32 0, label %53
  ]

53:                                               ; preds = %51
  br label %54

54:                                               ; preds = %53, %26
  %55 = load i64, ptr %6, align 8, !tbaa !11
  %56 = load i64, ptr %7, align 8, !tbaa !11
  %57 = icmp ule i64 %55, %56
  br i1 %57, label %58, label %61

58:                                               ; preds = %54
  %59 = load i64, ptr %8, align 8, !tbaa !11
  %60 = mul i64 %59, 200
  store i64 %60, ptr %4, align 8
  store i32 1, ptr %10, align 4
  br label %128

61:                                               ; preds = %54
  call void @llvm.lifetime.start.p0(i64 8, ptr %11) #9
  store i64 2, ptr %11, align 8, !tbaa !11
  call void @llvm.lifetime.start.p0(i64 8, ptr %12) #9
  store i64 200, ptr %12, align 8, !tbaa !11
  call void @llvm.lifetime.start.p0(i64 8, ptr %13) #9
  call void @llvm.lifetime.start.p0(i64 8, ptr %14) #9
  %62 = load ptr, ptr %5, align 8, !tbaa !4
  %63 = load i64, ptr %11, align 8, !tbaa !11
  %64 = call i64 @decay_npurge_after_interval(ptr noundef %62, i64 noundef %63)
  store i64 %64, ptr %13, align 8, !tbaa !11
  %65 = load i64, ptr %13, align 8, !tbaa !11
  %66 = load i64, ptr %7, align 8, !tbaa !11
  %67 = icmp ugt i64 %65, %66
  br i1 %67, label %68, label %72

68:                                               ; preds = %61
  %69 = load i64, ptr %8, align 8, !tbaa !11
  %70 = load i64, ptr %11, align 8, !tbaa !11
  %71 = mul i64 %69, %70
  store i64 %71, ptr %4, align 8
  store i32 1, ptr %10, align 4
  br label %127

72:                                               ; preds = %61
  %73 = load ptr, ptr %5, align 8, !tbaa !4
  %74 = load i64, ptr %12, align 8, !tbaa !11
  %75 = call i64 @decay_npurge_after_interval(ptr noundef %73, i64 noundef %74)
  store i64 %75, ptr %14, align 8, !tbaa !11
  %76 = load i64, ptr %14, align 8, !tbaa !11
  %77 = load i64, ptr %7, align 8, !tbaa !11
  %78 = icmp ult i64 %76, %77
  br i1 %78, label %79, label %83

79:                                               ; preds = %72
  %80 = load i64, ptr %8, align 8, !tbaa !11
  %81 = load i64, ptr %12, align 8, !tbaa !11
  %82 = mul i64 %80, %81
  store i64 %82, ptr %4, align 8
  store i32 1, ptr %10, align 4
  br label %127

83:                                               ; preds = %72
  call void @llvm.lifetime.start.p0(i64 4, ptr %15) #9
  store i32 0, ptr %15, align 4, !tbaa !13
  call void @llvm.lifetime.start.p0(i64 8, ptr %16) #9
  call void @llvm.lifetime.start.p0(i64 8, ptr %17) #9
  br label %84

84:                                               ; preds = %117, %83
  %85 = load i64, ptr %13, align 8, !tbaa !11
  %86 = load i64, ptr %7, align 8, !tbaa !11
  %87 = add i64 %85, %86
  %88 = load i64, ptr %14, align 8, !tbaa !11
  %89 = icmp ult i64 %87, %88
  br i1 %89, label %90, label %95

90:                                               ; preds = %84
  %91 = load i64, ptr %11, align 8, !tbaa !11
  %92 = add i64 %91, 2
  %93 = load i64, ptr %12, align 8, !tbaa !11
  %94 = icmp ult i64 %92, %93
  br label %95

95:                                               ; preds = %90, %84
  %96 = phi i1 [ false, %84 ], [ %94, %90 ]
  br i1 %96, label %97, label %120

97:                                               ; preds = %95
  %98 = load i64, ptr %11, align 8, !tbaa !11
  %99 = load i64, ptr %12, align 8, !tbaa !11
  %100 = add i64 %98, %99
  %101 = udiv i64 %100, 2
  store i64 %101, ptr %16, align 8, !tbaa !11
  %102 = load ptr, ptr %5, align 8, !tbaa !4
  %103 = load i64, ptr %16, align 8, !tbaa !11
  %104 = call i64 @decay_npurge_after_interval(ptr noundef %102, i64 noundef %103)
  store i64 %104, ptr %17, align 8, !tbaa !11
  %105 = load i64, ptr %17, align 8, !tbaa !11
  %106 = load i64, ptr %7, align 8, !tbaa !11
  %107 = icmp ugt i64 %105, %106
  br i1 %107, label %108, label %111

108:                                              ; preds = %97
  %109 = load i64, ptr %16, align 8, !tbaa !11
  store i64 %109, ptr %12, align 8, !tbaa !11
  %110 = load i64, ptr %17, align 8, !tbaa !11
  store i64 %110, ptr %14, align 8, !tbaa !11
  br label %114

111:                                              ; preds = %97
  %112 = load i64, ptr %16, align 8, !tbaa !11
  store i64 %112, ptr %11, align 8, !tbaa !11
  %113 = load i64, ptr %17, align 8, !tbaa !11
  store i64 %113, ptr %13, align 8, !tbaa !11
  br label %114

114:                                              ; preds = %111, %108
  br label %115

115:                                              ; preds = %114
  br label %116

116:                                              ; preds = %115
  br label %117

117:                                              ; preds = %116
  %118 = load i32, ptr %15, align 4, !tbaa !13
  %119 = add i32 %118, 1
  store i32 %119, ptr %15, align 4, !tbaa !13
  br label %84, !llvm.loop !28

120:                                              ; preds = %95
  %121 = load i64, ptr %8, align 8, !tbaa !11
  %122 = load i64, ptr %12, align 8, !tbaa !11
  %123 = load i64, ptr %11, align 8, !tbaa !11
  %124 = add i64 %122, %123
  %125 = mul i64 %121, %124
  %126 = udiv i64 %125, 2
  store i64 %126, ptr %4, align 8
  store i32 1, ptr %10, align 4
  call void @llvm.lifetime.end.p0(i64 8, ptr %17) #9
  call void @llvm.lifetime.end.p0(i64 8, ptr %16) #9
  call void @llvm.lifetime.end.p0(i64 4, ptr %15) #9
  br label %127

127:                                              ; preds = %120, %79, %68
  call void @llvm.lifetime.end.p0(i64 8, ptr %14) #9
  call void @llvm.lifetime.end.p0(i64 8, ptr %13) #9
  call void @llvm.lifetime.end.p0(i64 8, ptr %12) #9
  call void @llvm.lifetime.end.p0(i64 8, ptr %11) #9
  br label %128

128:                                              ; preds = %127, %58, %51
  call void @llvm.lifetime.end.p0(i64 8, ptr %8) #9
  br label %129

129:                                              ; preds = %128, %20
  %130 = load i64, ptr %4, align 8
  ret i64 %130
}